
run.elf:     file format elf32-littlearm


Disassembly of section .text:

00008000 <_start>:
    8000:	e59ff018 	ldr	pc, [pc, #24]	; 8020 <reset_handler>
    8004:	e59ff018 	ldr	pc, [pc, #24]	; 8024 <undefined_handler>
    8008:	e59ff018 	ldr	pc, [pc, #24]	; 8028 <swi_handler>
    800c:	e59ff018 	ldr	pc, [pc, #24]	; 802c <prefetch_handler>
    8010:	e59ff018 	ldr	pc, [pc, #24]	; 8030 <data_handler>
    8014:	e59ff018 	ldr	pc, [pc, #24]	; 8034 <hyp_handler>
    8018:	e59ff018 	ldr	pc, [pc, #24]	; 8038 <irq_handler>
    801c:	e59ff018 	ldr	pc, [pc, #24]	; 803c <fiq_handler>

00008020 <reset_handler>:
    8020:	00008040 	andeq	r8, r0, r0, asr #32

00008024 <undefined_handler>:
    8024:	00008090 	muleq	r0, r0, r0

00008028 <swi_handler>:
    8028:	00008090 	muleq	r0, r0, r0

0000802c <prefetch_handler>:
    802c:	00008090 	muleq	r0, r0, r0

00008030 <data_handler>:
    8030:	00008090 	muleq	r0, r0, r0

00008034 <hyp_handler>:
    8034:	00008090 	muleq	r0, r0, r0

00008038 <irq_handler>:
    8038:	000080a4 	andeq	r8, r0, r4, lsr #1

0000803c <fiq_handler>:
    803c:	00008090 	muleq	r0, r0, r0

00008040 <reset>:
    8040:	e10f0000 	mrs	r0, CPSR
    8044:	e3c0001f 	bic	r0, r0, #31
    8048:	e3800013 	orr	r0, r0, #19
    804c:	e16ff000 	msr	SPSR_fsxc, r0
    8050:	e28f0004 	add	r0, pc, #4
    8054:	e12ef300 	msr	ELR_hyp, r0
    8058:	e160006e 	eret
    805c:	ee1c1f10 	mrc	15, 0, r1, cr12, cr0, {0}
    8060:	e3a00902 	mov	r0, #32768	; 0x8000
    8064:	e8b003fc 	ldm	r0!, {r2, r3, r4, r5, r6, r7, r8, r9}
    8068:	e8a103fc 	stmia	r1!, {r2, r3, r4, r5, r6, r7, r8, r9}
    806c:	e8b003fc 	ldm	r0!, {r2, r3, r4, r5, r6, r7, r8, r9}
    8070:	e8a103fc 	stmia	r1!, {r2, r3, r4, r5, r6, r7, r8, r9}
    8074:	e3a000d2 	mov	r0, #210	; 0xd2
    8078:	e121f000 	msr	CPSR_c, r0
    807c:	e3a0d902 	mov	sp, #32768	; 0x8000
    8080:	e3a000d3 	mov	r0, #211	; 0xd3
    8084:	e121f000 	msr	CPSR_c, r0
    8088:	e3a0d302 	mov	sp, #134217728	; 0x8000000
    808c:	eb00006d 	bl	8248 <main>

00008090 <hang>:
    8090:	eafffffe 	b	8090 <hang>

00008094 <enable_irq>:
    8094:	e10f0000 	mrs	r0, CPSR
    8098:	e3c00080 	bic	r0, r0, #128	; 0x80
    809c:	e121f000 	msr	CPSR_c, r0
    80a0:	e12fff1e 	bx	lr

000080a4 <irq>:
    80a4:	e92d5fff 	push	{r0, r1, r2, r3, r4, r5, r6, r7, r8, r9, sl, fp, ip, lr}
    80a8:	eb00002a 	bl	8158 <handle_irq>
    80ac:	e8bd5fff 	pop	{r0, r1, r2, r3, r4, r5, r6, r7, r8, r9, sl, fp, ip, lr}
    80b0:	e25ef004 	subs	pc, lr, #4

000080b4 <SetActLEDState>:
    80b4:	e52de004 	push	{lr}		; (str lr, [sp, #-4]!)
    80b8:	e1a02000 	mov	r2, r0
    80bc:	e59f006c 	ldr	r0, [pc, #108]	; 8130 <wait_read$+0x24>
    80c0:	e3a03000 	mov	r3, #0
    80c4:	e5803004 	str	r3, [r0, #4]
    80c8:	e5803010 	str	r3, [r0, #16]
    80cc:	e3a03082 	mov	r3, #130	; 0x82
    80d0:	e5803014 	str	r3, [r0, #20]
    80d4:	e5802018 	str	r2, [r0, #24]
    80d8:	e3a01008 	mov	r1, #8
    80dc:	eb000002 	bl	80ec <MailboxWrite>
    80e0:	e3a00008 	mov	r0, #8
    80e4:	eb000007 	bl	8108 <MailboxRead>
    80e8:	e49df004 	pop	{pc}		; (ldr pc, [sp], #4)

000080ec <MailboxWrite>:
    80ec:	e0800001 	add	r0, r0, r1
    80f0:	e59f203c 	ldr	r2, [pc, #60]	; 8134 <wait_read$+0x28>

000080f4 <wait_write$>:
    80f4:	e5923018 	ldr	r3, [r2, #24]
    80f8:	e3130102 	tst	r3, #-2147483648	; 0x80000000
    80fc:	1afffffc 	bne	80f4 <wait_write$>
    8100:	e5820020 	str	r0, [r2, #32]
    8104:	e1a0f00e 	mov	pc, lr

00008108 <MailboxRead>:
    8108:	e59f1024 	ldr	r1, [pc, #36]	; 8134 <wait_read$+0x28>

0000810c <wait_read$>:
    810c:	e5912018 	ldr	r2, [r1, #24]
    8110:	e3120101 	tst	r2, #1073741824	; 0x40000000
    8114:	1afffffc 	bne	810c <wait_read$>
    8118:	e5912000 	ldr	r2, [r1]
    811c:	e202300f 	and	r3, r2, #15
    8120:	e1330000 	teq	r3, r0
    8124:	1afffff8 	bne	810c <wait_read$>
    8128:	e1a00002 	mov	r0, r2
    812c:	e1a0f00e 	mov	pc, lr
    8130:	000082b0 			; <UNDEFINED> instruction: 0x000082b0
    8134:	3f00b880 	svccc	0x0000b880

00008138 <uart_send>:
    8138:	e59f2014 	ldr	r2, [pc, #20]	; 8154 <uart_send+0x1c>
    813c:	e5923054 	ldr	r3, [r2, #84]	; 0x54
    8140:	e3130020 	tst	r3, #32
    8144:	e59f3008 	ldr	r3, [pc, #8]	; 8154 <uart_send+0x1c>
    8148:	0afffffb 	beq	813c <uart_send+0x4>
    814c:	e5830040 	str	r0, [r3, #64]	; 0x40
    8150:	e12fff1e 	bx	lr
    8154:	3f215000 	svccc	0x00215000

00008158 <handle_irq>:
    8158:	e92d4008 	push	{r3, lr}
    815c:	e59f3070 	ldr	r3, [pc, #112]	; 81d4 <handle_irq+0x7c>
    8160:	e5932000 	ldr	r2, [r3]
    8164:	e2822001 	add	r2, r2, #1
    8168:	e5832000 	str	r2, [r3]
    816c:	e5930000 	ldr	r0, [r3]
    8170:	e2100001 	ands	r0, r0, #1
    8174:	0a00000d 	beq	81b0 <handle_irq+0x58>
    8178:	e3a00001 	mov	r0, #1
    817c:	ebffffcc 	bl	80b4 <SetActLEDState>
    8180:	e59f2050 	ldr	r2, [pc, #80]	; 81d8 <handle_irq+0x80>
    8184:	e5923054 	ldr	r3, [r2, #84]	; 0x54
    8188:	e3130020 	tst	r3, #32
    818c:	e59f3044 	ldr	r3, [pc, #68]	; 81d8 <handle_irq+0x80>
    8190:	0afffffb 	beq	8184 <handle_irq+0x2c>
    8194:	e3a0202d 	mov	r2, #45	; 0x2d
    8198:	e5832040 	str	r2, [r3, #64]	; 0x40
    819c:	e59f3038 	ldr	r3, [pc, #56]	; 81dc <handle_irq+0x84>
    81a0:	e3a02000 	mov	r2, #0
    81a4:	e583240c 	str	r2, [r3, #1036]	; 0x40c
    81a8:	e8bd4008 	pop	{r3, lr}
    81ac:	e12fff1e 	bx	lr
    81b0:	ebffffbf 	bl	80b4 <SetActLEDState>
    81b4:	e59f201c 	ldr	r2, [pc, #28]	; 81d8 <handle_irq+0x80>
    81b8:	e5923054 	ldr	r3, [r2, #84]	; 0x54
    81bc:	e3130020 	tst	r3, #32
    81c0:	e59f3010 	ldr	r3, [pc, #16]	; 81d8 <handle_irq+0x80>
    81c4:	0afffffb 	beq	81b8 <handle_irq+0x60>
    81c8:	e3a0202e 	mov	r2, #46	; 0x2e
    81cc:	e5832040 	str	r2, [r3, #64]	; 0x40
    81d0:	eafffff1 	b	819c <handle_irq+0x44>
    81d4:	000082d0 	ldrdeq	r8, [r0], -r0
    81d8:	3f215000 	svccc	0x00215000
    81dc:	3f00b000 	svccc	0x0000b000

000081e0 <timer_init>:
    81e0:	e59f3038 	ldr	r3, [pc, #56]	; 8220 <timer_init+0x40>
    81e4:	e59f1038 	ldr	r1, [pc, #56]	; 8224 <timer_init+0x44>
    81e8:	e52d4004 	push	{r4}		; (str r4, [sp, #-4]!)
    81ec:	e3a02001 	mov	r2, #1
    81f0:	e3a0483e 	mov	r4, #4063232	; 0x3e0000
    81f4:	e3a0c0f9 	mov	ip, #249	; 0xf9
    81f8:	e3a00000 	mov	r0, #0
    81fc:	e5832224 	str	r2, [r3, #548]	; 0x224
    8200:	e5834408 	str	r4, [r3, #1032]	; 0x408
    8204:	e5831400 	str	r1, [r3, #1024]	; 0x400
    8208:	e49d4004 	pop	{r4}		; (ldr r4, [sp], #4)
    820c:	e5831418 	str	r1, [r3, #1048]	; 0x418
    8210:	e583c41c 	str	ip, [r3, #1052]	; 0x41c
    8214:	e583040c 	str	r0, [r3, #1036]	; 0x40c
    8218:	e5832218 	str	r2, [r3, #536]	; 0x218
    821c:	e12fff1e 	bx	lr
    8220:	3f00b000 	svccc	0x0000b000
    8224:	003d08ff 	ldrshteq	r0, [sp], -pc

00008228 <timer_start>:
    8228:	e59f3010 	ldr	r3, [pc, #16]	; 8240 <timer_start+0x18>
    822c:	e59f1010 	ldr	r1, [pc, #16]	; 8244 <timer_start+0x1c>
    8230:	e3a02000 	mov	r2, #0
    8234:	e5831408 	str	r1, [r3, #1032]	; 0x408
    8238:	e583240c 	str	r2, [r3, #1036]	; 0x40c
    823c:	e12fff1e 	bx	lr
    8240:	3f00b000 	svccc	0x0000b000
    8244:	003e00a2 	eorseq	r0, lr, r2, lsr #1

00008248 <main>:
    8248:	e59f404c 	ldr	r4, [pc, #76]	; 829c <main+0x54>
    824c:	e59f204c 	ldr	r2, [pc, #76]	; 82a0 <main+0x58>
    8250:	e92d4008 	push	{r3, lr}
    8254:	e3a05000 	mov	r5, #0
    8258:	e3a03001 	mov	r3, #1
    825c:	e3a0c83e 	mov	ip, #4063232	; 0x3e0000
    8260:	e3a000f9 	mov	r0, #249	; 0xf9
    8264:	e59f1038 	ldr	r1, [pc, #56]	; 82a4 <main+0x5c>
    8268:	e5843224 	str	r3, [r4, #548]	; 0x224
    826c:	e584c408 	str	ip, [r4, #1032]	; 0x408
    8270:	e5842400 	str	r2, [r4, #1024]	; 0x400
    8274:	e5842418 	str	r2, [r4, #1048]	; 0x418
    8278:	e584041c 	str	r0, [r4, #1052]	; 0x41c
    827c:	e584540c 	str	r5, [r4, #1036]	; 0x40c
    8280:	e5843218 	str	r3, [r4, #536]	; 0x218
    8284:	e5815000 	str	r5, [r1]
    8288:	ebffff81 	bl	8094 <enable_irq>
    828c:	e59f3014 	ldr	r3, [pc, #20]	; 82a8 <main+0x60>
    8290:	e5843408 	str	r3, [r4, #1032]	; 0x408
    8294:	e584540c 	str	r5, [r4, #1036]	; 0x40c
    8298:	eafffffe 	b	8298 <main+0x50>
    829c:	3f00b000 	svccc	0x0000b000
    82a0:	003d08ff 	ldrshteq	r0, [sp], -pc
    82a4:	000082d0 	ldrdeq	r8, [r0], -r0
    82a8:	003e00a2 	eorseq	r0, lr, r2, lsr #1

Disassembly of section .data:

000082b0 <PropertyInfo>:
    82b0:	00000020 	andeq	r0, r0, r0, lsr #32
    82b4:	00000000 	andeq	r0, r0, r0
    82b8:	00038041 	andeq	r8, r3, r1, asr #32
    82bc:	00000008 	andeq	r0, r0, r8
    82c0:	00000000 	andeq	r0, r0, r0
    82c4:	00000082 	andeq	r0, r0, r2, lsl #1
    82c8:	00000001 	andeq	r0, r0, r1
    82cc:	00000000 	andeq	r0, r0, r0

Disassembly of section .bss:

000082d0 <icount>:
    82d0:	00000000 	andeq	r0, r0, r0

Disassembly of section .ARM.attributes:

00000000 <.ARM.attributes>:
   0:	00002b41 	andeq	r2, r0, r1, asr #22
   4:	61656100 	cmnvs	r5, r0, lsl #2
   8:	01006962 	tsteq	r0, r2, ror #18
   c:	00000021 	andeq	r0, r0, r1, lsr #32
  10:	4d524105 	ldfmie	f4, [r2, #-20]	; 0xffffffec
  14:	00377620 	eorseq	r7, r7, r0, lsr #12
  18:	01080a06 	tsteq	r8, r6, lsl #20
  1c:	04120109 	ldreq	r0, [r2], #-265	; 0xfffffef7
  20:	01150114 	tsteq	r5, r4, lsl r1
  24:	01180317 	tsteq	r8, r7, lsl r3
  28:	0244011a 	subeq	r0, r4, #-2147483642	; 0x80000006

Disassembly of section .comment:

00000000 <.comment>:
   0:	3a434347 	bcc	10d0d24 <PropertyInfoEnd+0x10c8a54>
   4:	2e342820 	cdpcs	8, 3, cr2, cr4, cr0, {1}
   8:	2d342e38 	ldccs	14, cr2, [r4, #-224]!	; 0xffffff20
   c:	31312b31 	teqcc	r1, r1, lsr fp
  10:	2029312d 	eorcs	r3, r9, sp, lsr #2
  14:	2e382e34 	mrccs	14, 1, r2, cr8, cr4, {1}
  18:	30322034 	eorscc	r2, r2, r4, lsr r0
  1c:	32313431 	eorscc	r3, r1, #822083584	; 0x31000000
  20:	28203931 	stmdacs	r0!, {r0, r4, r5, r8, fp, ip, sp}
  24:	656c6572 	strbvs	r6, [ip, #-1394]!	; 0xfffffa8e
  28:	29657361 	stmdbcs	r5!, {r0, r5, r6, r8, r9, ip, sp, lr}^
	...
